; Function Attrs: mustprogress nounwind uwtable
define internal fastcc noundef zeroext i1 @"_ZZL14getFMAPatternsRN4llvm12MachineInstrERNS_15SmallVectorImplIjEEENK3$_0clEiij"(ptr nocapture noundef nonnull readonly align 8 dereferenceable(24) %0, i32 noundef %1, i32 noundef %2, i32 noundef %3) unnamed_addr #1 align 2 {
  %5 = load ptr, ptr %0, align 8
  %6 = getelementptr inbounds nuw i8, ptr %0, i64 8
  %7 = load ptr, ptr %6, align 8
  %8 = getelementptr inbounds nuw i8, ptr %7, i64 32
  %9 = load ptr, ptr %8, align 8
  %10 = zext i32 %2 to i64
  %11 = getelementptr inbounds %"class.llvm::MachineOperand", ptr %9, i64 %10
  %.val = load i32, ptr %11, align 8
  %12 = getelementptr i8, ptr %11, i64 4
  %.val4 = load i32, ptr %12, align 4
  %13 = tail call fastcc noundef zeroext i1 @_ZL10canCombineRN4llvm17MachineBasicBlockERNS_14MachineOperandEjjb(ptr noundef nonnull align 8 dereferenceable(288) %5, i32 %.val, i32 %.val4, i32 noundef %1, i32 noundef 0, i1 noundef zeroext false)
  br i1 %13, label %14, label %27

14:                                               ; preds = %4
  %15 = getelementptr inbounds nuw i8, ptr %0, i64 16
  %16 = load ptr, ptr %15, align 8
  %17 = tail call noundef i64 @_ZNK4llvm15SmallVectorBaseIjE4sizeEv(ptr noundef nonnull align 8 dereferenceable(16) %16) #27
  %18 = add i64 %17, 1
  %19 = tail call noundef i64 @_ZNK4llvm15SmallVectorBaseIjE8capacityEv(ptr noundef nonnull align 8 dereferenceable(16) %16) #27
  %.not.i.i.i = icmp ugt i64 %18, %19
  br i1 %.not.i.i.i, label %20, label %_ZN4llvm23SmallVectorTemplateBaseIjLb1EE9push_backEj.exit

20:                                               ; preds = %14
  %21 = getelementptr inbounds i8, ptr %16, i64 16
  tail call void @_ZN4llvm15SmallVectorBaseIjE8grow_podEPvmm(ptr noundef nonnull align 8 dereferenceable(16) %16, ptr noundef nonnull %21, i64 noundef %18, i64 noundef 4) #27
  br label %_ZN4llvm23SmallVectorTemplateBaseIjLb1EE9push_backEj.exit

_ZN4llvm23SmallVectorTemplateBaseIjLb1EE9push_backEj.exit: ; preds = %14, %20
  %22 = load ptr, ptr %16, align 8
  %23 = tail call noundef i64 @_ZNK4llvm15SmallVectorBaseIjE4sizeEv(ptr noundef nonnull align 8 dereferenceable(16) %16) #27
  %24 = getelementptr inbounds i32, ptr %22, i64 %23
  store i32 %3, ptr %24, align 1
  %25 = tail call noundef i64 @_ZNK4llvm15SmallVectorBaseIjE4sizeEv(ptr noundef nonnull align 8 dereferenceable(16) %16) #27
  %26 = add i64 %25, 1
  tail call void @_ZN4llvm15SmallVectorBaseIjE8set_sizeEm(ptr noundef nonnull align 8 dereferenceable(16) %16, i64 noundef %26) #27
  br label %27

27:                                               ; preds = %4, %_ZN4llvm23SmallVectorTemplateBaseIjLb1EE9push_backEj.exit
  ret i1 %13
}